; Function Attrs: mustprogress nofree norecurse nosync nounwind willreturn memory(read, inaccessiblemem: none) uwtable
define noundef zeroext i1 @_ZNK7testing10TestResult15HasFatalFailureEv(ptr noundef nonnull readonly align 8 captures(none) dereferenceable(120) %0) local_unnamed_addr #11 align 2 {
  %2 = getelementptr inbounds nuw i8, ptr %0, i64 56
  %3 = load ptr, ptr %2, align 8, !tbaa !599
  %4 = getelementptr inbounds nuw i8, ptr %0, i64 64
  %5 = load ptr, ptr %4, align 8, !tbaa !599
  %.not7.i = icmp eq ptr %3, %5
  br i1 %.not7.i, label %_ZN7testing8internal7CountIfISt6vectorINS_14TestPartResultESaIS3_EEPFbRKS3_EEEiRKT_T0_.exit, label %.lr.ph.i

.lr.ph.i:                                         ; preds = %1, %.lr.ph.i
  %.09.i = phi i32 [ %spec.select.i, %.lr.ph.i ], [ 0, %1 ]
  %.sroa.04.08.i = phi ptr [ %9, %.lr.ph.i ], [ %3, %1 ]
  %6 = load i32, ptr %.sroa.04.08.i, align 8, !tbaa !208
  %7 = icmp eq i32 %6, 2
  %8 = zext i1 %7 to i32
  %spec.select.i = add nuw nsw i32 %.09.i, %8
  %9 = getelementptr inbounds nuw i8, ptr %.sroa.04.08.i, i64 112
  %.not.i = icmp eq ptr %9, %5
  br i1 %.not.i, label %_ZN7testing8internal7CountIfISt6vectorINS_14TestPartResultESaIS3_EEPFbRKS3_EEEiRKT_T0_.exit.loopexit, label %.lr.ph.i, !llvm.loop !600

_ZN7testing8internal7CountIfISt6vectorINS_14TestPartResultESaIS3_EEPFbRKS3_EEEiRKT_T0_.exit.loopexit: ; preds = %.lr.ph.i
  %10 = icmp ne i32 %spec.select.i, 0
  br label %_ZN7testing8internal7CountIfISt6vectorINS_14TestPartResultESaIS3_EEPFbRKS3_EEEiRKT_T0_.exit

_ZN7testing8internal7CountIfISt6vectorINS_14TestPartResultESaIS3_EEPFbRKS3_EEEiRKT_T0_.exit: ; preds = %_ZN7testing8internal7CountIfISt6vectorINS_14TestPartResultESaIS3_EEPFbRKS3_EEEiRKT_T0_.exit.loopexit, %1
  %.0.lcssa.i = phi i1 [ false, %1 ], [ %10, %_ZN7testing8internal7CountIfISt6vectorINS_14TestPartResultESaIS3_EEPFbRKS3_EEEiRKT_T0_.exit.loopexit ]
  ret i1 %.0.lcssa.i
}